; Function Attrs: nofree nounwind uwtable
define void @Bac_PtrDumpBoxesVerilog(ptr noundef captures(none) %0, ptr noundef readonly captures(none) %1) local_unnamed_addr #3 {
  %3 = getelementptr i8, ptr %1, i64 4
  %.val67 = load i32, ptr %3, align 4
  %4 = icmp sgt i32 %.val67, 0
  br i1 %4, label %.lr.ph, label %.critedge

.lr.ph:                                           ; preds = %2
  %5 = getelementptr i8, ptr %1, i64 8
  br label %6

6:                                                ; preds = %.lr.ph, %6
  %indvars.iv = phi i64 [ 0, %.lr.ph ], [ %indvars.iv.next, %6 ]
  %.val = load ptr, ptr %5, align 8
  %7 = getelementptr inbounds nuw ptr, ptr %.val, i64 %indvars.iv
  %8 = load ptr, ptr %7, align 8
  tail call void @Bac_PtrDumpBoxVerilog(ptr noundef %0, ptr noundef %8)
  %indvars.iv.next = add nuw nsw i64 %indvars.iv, 1
  %.val6 = load i32, ptr %3, align 4
  %9 = sext i32 %.val6 to i64
  %10 = icmp slt i64 %indvars.iv.next, %9
  br i1 %10, label %6, label %.critedge, !llvm.loop !15

.critedge:                                        ; preds = %6, %2
  ret void
}